(dp0
S'I3D_OS_LINUX'
p1
NsS'S3E_EXT_ANDROIDAPPIRATER'
p2
NsS'IW_MKF_S3EANDROIDAPPIRATER_BUILD'
p3
NsS'IW_TRACE_CHANNEL_ANDROIDAPPIRATER_VERBOSE'
p4
S'2'
p5
sS'IW_PLATFORM_LINUX'
p6
NsS'I3D_ARCH_ARM'
p7
NsS'IW_SDK'
p8
NsS'IW_ASSERTION_CHANNEL_ANDROIDAPPIRATER'
p9
S'1'
p10
sS'IW_USE_ASSERTIONS'
p11
NsS'IW_USE_TRACING'
p12
NsS'S3E_ANDROID'
p13
NsS'S3E_BUILD_EXT'
p14
NsS'IW_TRACE_CHANNEL_ANDROIDAPPIRATER'
p15
g10
sS'IW_MKF_EDK'
p16
NsS'I3D_PLATFORM_LINUX'
p17
NsS'IW_DEBUG'
p18
NsS'ANDROID'
p19
Ns.